target datalayout = "e-m:e-p270:32:32-p271:32:32-p272:64:64-i64:64-i128:128-f80:128-n8:16:32:64-S128"
target triple = "x86_64-pc-linux-gnu"

%struct.timespec = type { i64, i64 }
%struct.utime_args = type { ptr, i64, i64, i32 }

; Function Attrs: inlinehint nounwind sspstrong willreturn memory(none) uwtable
define internal zeroext i1 @RB_NIL_P(i64 noundef %0) #10 {
  %2 = alloca i64, align 8
  store i64 %0, ptr %2, align 8, !tbaa !7
  %3 = load i64, ptr %2, align 8, !tbaa !7
  %4 = icmp eq i64 %3, 4
  ret i1 %4
}

; Function Attrs: inlinehint nounwind sspstrong uwtable
define internal i32 @rb_check_arity(i32 noundef %0, i32 noundef %1, i32 noundef %2) #8 {
  %4 = alloca i32, align 4
  %5 = alloca i32, align 4
  %6 = alloca i32, align 4
  store i32 %0, ptr %4, align 4, !tbaa !11
  store i32 %1, ptr %5, align 4, !tbaa !11
  store i32 %2, ptr %6, align 4, !tbaa !11
  %7 = load i32, ptr %4, align 4, !tbaa !11
  %8 = load i32, ptr %5, align 4, !tbaa !11
  %9 = icmp slt i32 %7, %8
  br i1 %9, label %17, label %10

10:                                               ; preds = %3
  %11 = load i32, ptr %6, align 4, !tbaa !11
  %12 = icmp ne i32 %11, -1
  br i1 %12, label %13, label %21

13:                                               ; preds = %10
  %14 = load i32, ptr %4, align 4, !tbaa !11
  %15 = load i32, ptr %6, align 4, !tbaa !11
  %16 = icmp sgt i32 %14, %15
  br i1 %16, label %17, label %21

17:                                               ; preds = %13, %3
  %18 = load i32, ptr %4, align 4, !tbaa !11
  %19 = load i32, ptr %5, align 4, !tbaa !11
  %20 = load i32, ptr %6, align 4, !tbaa !11
  call void @rb_error_arity(i32 noundef %18, i32 noundef %19, i32 noundef %20) #28
  unreachable

21:                                               ; preds = %13, %10
  %22 = load i32, ptr %4, align 4, !tbaa !11
  ret i32 %22
}

; Function Attrs: nounwind sspstrong uwtable
define internal i64 @utime_internal_i(i32 noundef %0, ptr noundef %1, i32 noundef %2) #0 {
  %4 = alloca i32, align 4
  %5 = alloca ptr, align 8
  %6 = alloca i32, align 4
  %7 = alloca %struct.utime_args, align 8
  %8 = alloca [2 x %struct.timespec], align 16
  %9 = alloca ptr, align 8
  %10 = alloca %struct.timespec, align 8
  %11 = alloca %struct.timespec, align 8
  store i32 %0, ptr %4, align 4, !tbaa !11
  store ptr %1, ptr %5, align 8, !tbaa !13
  store i32 %2, ptr %6, align 4, !tbaa !11
  call void @llvm.lifetime.start.p0(i64 32, ptr %7) #24
  call void @llvm.lifetime.start.p0(i64 32, ptr %8) #24
  call void @llvm.lifetime.start.p0(i64 8, ptr %9) #24
  store ptr null, ptr %9, align 8, !tbaa !223
  %12 = load i32, ptr %4, align 4, !tbaa !11
  %13 = call i32 @rb_check_arity(i32 noundef %12, i32 noundef 2, i32 noundef -1)
  %14 = load i32, ptr %4, align 4, !tbaa !11
  %15 = sub i32 %14, 2
  store i32 %15, ptr %4, align 4, !tbaa !11
  %16 = load ptr, ptr %5, align 8, !tbaa !13
  %17 = getelementptr i64, ptr %16, i32 1
  store ptr %17, ptr %5, align 8, !tbaa !13
  %18 = load i64, ptr %16, align 8, !tbaa !7
  %19 = getelementptr inbounds nuw %struct.utime_args, ptr %7, i32 0, i32 1
  store i64 %18, ptr %19, align 8, !tbaa !225
  %20 = load ptr, ptr %5, align 8, !tbaa !13
  %21 = getelementptr i64, ptr %20, i32 1
  store ptr %21, ptr %5, align 8, !tbaa !13
  %22 = load i64, ptr %20, align 8, !tbaa !7
  %23 = getelementptr inbounds nuw %struct.utime_args, ptr %7, i32 0, i32 2
  store i64 %22, ptr %23, align 8, !tbaa !227
  %24 = load i32, ptr %6, align 4, !tbaa !11
  %25 = getelementptr inbounds nuw %struct.utime_args, ptr %7, i32 0, i32 3
  store i32 %24, ptr %25, align 8, !tbaa !228
  %26 = getelementptr inbounds nuw %struct.utime_args, ptr %7, i32 0, i32 1
  %27 = load i64, ptr %26, align 8, !tbaa !225
  %28 = call zeroext i1 @RB_NIL_P(i64 noundef %27) #27
  br i1 %28, label %29, label %33

29:                                               ; preds = %3
  %30 = getelementptr inbounds nuw %struct.utime_args, ptr %7, i32 0, i32 2
  %31 = load i64, ptr %30, align 8, !tbaa !227
  %32 = call zeroext i1 @RB_NIL_P(i64 noundef %31) #27
  br i1 %32, label %65, label %33

33:                                               ; preds = %29, %3
  %34 = getelementptr inbounds [2 x %struct.timespec], ptr %8, i64 0, i64 0
  store ptr %34, ptr %9, align 8, !tbaa !223
  %35 = load ptr, ptr %9, align 8, !tbaa !223
  %36 = getelementptr %struct.timespec, ptr %35, i64 0
  call void @llvm.lifetime.start.p0(i64 16, ptr %10) #24
  %37 = getelementptr inbounds nuw %struct.utime_args, ptr %7, i32 0, i32 1
  %38 = load i64, ptr %37, align 8, !tbaa !225
  %39 = call { i64, i64 } @rb_time_timespec(i64 noundef %38)
  %40 = getelementptr inbounds nuw { i64, i64 }, ptr %10, i32 0, i32 0
  %41 = extractvalue { i64, i64 } %39, 0
  store i64 %41, ptr %40, align 8
  %42 = getelementptr inbounds nuw { i64, i64 }, ptr %10, i32 0, i32 1
  %43 = extractvalue { i64, i64 } %39, 1
  store i64 %43, ptr %42, align 8
  call void @llvm.memcpy.p0.p0.i64(ptr align 8 %36, ptr align 8 %10, i64 16, i1 false), !tbaa.struct !154
  call void @llvm.lifetime.end.p0(i64 16, ptr %10) #24
  %44 = getelementptr inbounds nuw %struct.utime_args, ptr %7, i32 0, i32 1
  %45 = load i64, ptr %44, align 8, !tbaa !225
  %46 = getelementptr inbounds nuw %struct.utime_args, ptr %7, i32 0, i32 2
  %47 = load i64, ptr %46, align 8, !tbaa !227
  %48 = icmp eq i64 %45, %47
  br i1 %48, label %49, label %54

49:                                               ; preds = %33
  %50 = load ptr, ptr %9, align 8, !tbaa !223
  %51 = getelementptr %struct.timespec, ptr %50, i64 1
  %52 = load ptr, ptr %9, align 8, !tbaa !223
  %53 = getelementptr %struct.timespec, ptr %52, i64 0
  call void @llvm.memcpy.p0.p0.i64(ptr align 8 %51, ptr align 8 %53, i64 16, i1 false), !tbaa.struct !154
  br label %64

54:                                               ; preds = %33
  %55 = load ptr, ptr %9, align 8, !tbaa !223
  %56 = getelementptr %struct.timespec, ptr %55, i64 1
  call void @llvm.lifetime.start.p0(i64 16, ptr %11) #24
  %57 = getelementptr inbounds nuw %struct.utime_args, ptr %7, i32 0, i32 2
  %58 = load i64, ptr %57, align 8, !tbaa !227
  %59 = call { i64, i64 } @rb_time_timespec(i64 noundef %58)
  %60 = getelementptr inbounds nuw { i64, i64 }, ptr %11, i32 0, i32 0
  %61 = extractvalue { i64, i64 } %59, 0
  store i64 %61, ptr %60, align 8
  %62 = getelementptr inbounds nuw { i64, i64 }, ptr %11, i32 0, i32 1
  %63 = extractvalue { i64, i64 } %59, 1
  store i64 %63, ptr %62, align 8
  call void @llvm.memcpy.p0.p0.i64(ptr align 8 %56, ptr align 8 %11, i64 16, i1 false), !tbaa.struct !154
  call void @llvm.lifetime.end.p0(i64 16, ptr %11) #24
  br label %64

64:                                               ; preds = %54, %49
  br label %65

65:                                               ; preds = %64, %29
  %66 = load ptr, ptr %9, align 8, !tbaa !223
  %67 = getelementptr inbounds nuw %struct.utime_args, ptr %7, i32 0, i32 0
  store ptr %66, ptr %67, align 8, !tbaa !229
  %68 = load i32, ptr %4, align 4, !tbaa !11
  %69 = load ptr, ptr %5, align 8, !tbaa !13
  %70 = call i64 @apply2files(ptr noundef @utime_internal, i32 noundef %68, ptr noundef %69, ptr noundef %7)
  call void @llvm.lifetime.end.p0(i64 8, ptr %9) #24
  call void @llvm.lifetime.end.p0(i64 32, ptr %8) #24
  call void @llvm.lifetime.end.p0(i64 32, ptr %7) #24
  ret i64 %70
}

; Function Attrs: nounwind sspstrong uwtable
define internal i64 @rb_file_s_utime(i32 noundef %0, ptr noundef %1, i64 noundef %2) #0 {
  %4 = alloca i32, align 4
  %5 = alloca ptr, align 8
  %6 = alloca i64, align 8
  store i32 %0, ptr %4, align 4, !tbaa !11
  store ptr %1, ptr %5, align 8, !tbaa !13
  store i64 %2, ptr %6, align 8, !tbaa !7
  %7 = load i32, ptr %4, align 4, !tbaa !11
  %8 = load ptr, ptr %5, align 8, !tbaa !13
  %9 = call i64 @utime_internal_i(i32 noundef %7, ptr noundef %8, i32 noundef 0)
  ret i64 %9
}