; Function Attrs: nounwind sspstrong uwtable
define internal range(i64 1, 0) i64 @rb_file_s_utime(i32 noundef %0, ptr noundef readonly captures(none) %1, i64 %2) #0 {
  %4 = alloca %struct.utime_args, align 8
  %5 = alloca [2 x %struct.timespec], align 16
  call void @llvm.lifetime.start.p0(i64 32, ptr nonnull %4) #22
  call void @llvm.lifetime.start.p0(i64 32, ptr nonnull %5) #22
  %6 = icmp slt i32 %0, 2
  br i1 %6, label %7, label %rb_check_arity.exit.i

7:                                                ; preds = %3
  tail call void @rb_error_arity(i32 noundef %0, i32 noundef 2, i32 noundef -1) #24
  unreachable

rb_check_arity.exit.i:                            ; preds = %3
  %8 = getelementptr i8, ptr %1, i64 8
  %9 = load i64, ptr %1, align 8, !tbaa !12
  %10 = getelementptr inbounds nuw i8, ptr %4, i64 8
  store i64 %9, ptr %10, align 8, !tbaa !224
  %11 = load i64, ptr %8, align 8, !tbaa !12
  %12 = getelementptr inbounds nuw i8, ptr %4, i64 16
  store i64 %11, ptr %12, align 8, !tbaa !227
  %13 = getelementptr inbounds nuw i8, ptr %4, i64 24
  store i32 0, ptr %13, align 8, !tbaa !228
  %14 = icmp eq i64 %9, 4
  %15 = icmp eq i64 %11, 4
  %or.cond.i = select i1 %14, i1 %15, i1 false
  br i1 %or.cond.i, label %utime_internal_i.exit, label %16

16:                                               ; preds = %rb_check_arity.exit.i
  %17 = tail call { i64, i64 } @rb_time_timespec(i64 noundef %9) #22
  %18 = extractvalue { i64, i64 } %17, 0
  %19 = extractvalue { i64, i64 } %17, 1
  store i64 %18, ptr %5, align 16, !tbaa !12
  %.sroa.42.0..sroa_idx.i = getelementptr inbounds nuw i8, ptr %5, i64 8
  store i64 %19, ptr %.sroa.42.0..sroa_idx.i, align 8, !tbaa !12
  %20 = icmp eq i64 %9, %11
  %21 = getelementptr inbounds nuw i8, ptr %5, i64 16
  br i1 %20, label %22, label %23

22:                                               ; preds = %16
  call void @llvm.memcpy.p0.p0.i64(ptr noundef nonnull align 16 dereferenceable(16) %21, ptr noundef nonnull align 16 dereferenceable(16) %5, i64 16, i1 false), !tbaa.struct !229
  br label %utime_internal_i.exit

23:                                               ; preds = %16
  %24 = tail call { i64, i64 } @rb_time_timespec(i64 noundef %11) #22
  %25 = extractvalue { i64, i64 } %24, 0
  %26 = extractvalue { i64, i64 } %24, 1
  store i64 %25, ptr %21, align 16, !tbaa !12
  %.sroa.4.0..sroa_idx.i = getelementptr inbounds nuw i8, ptr %5, i64 24
  store i64 %26, ptr %.sroa.4.0..sroa_idx.i, align 8, !tbaa !12
  br label %utime_internal_i.exit

utime_internal_i.exit:                            ; preds = %rb_check_arity.exit.i, %22, %23
  %.0.i = phi ptr [ %5, %22 ], [ %5, %23 ], [ null, %rb_check_arity.exit.i ]
  %27 = getelementptr i8, ptr %1, i64 16
  %28 = add nsw i32 %0, -2
  store ptr %.0.i, ptr %4, align 8, !tbaa !230
  %29 = call fastcc range(i64 1, 0) i64 @apply2files(ptr noundef nonnull @utime_internal, i32 noundef %28, ptr noundef readonly %27, ptr noundef nonnull %4)
  call void @llvm.lifetime.end.p0(i64 32, ptr nonnull %5) #22
  call void @llvm.lifetime.end.p0(i64 32, ptr nonnull %4) #22
  ret i64 %29
}